target datalayout = "e-m:e-p270:32:32-p271:32:32-p272:64:64-i64:64-i128:128-f80:128-n8:16:32:64-S128"
target triple = "x86_64-pc-linux-gnu"

%struct.expert_field = type { i32, i32 }
%struct.e_in6_addr = type { [16 x i8] }

@hf_ospf_v3_address_prefix_ipv6 = internal global i32 0, align 4
@hf_ospf_v3_address_prefix_ipv4 = internal global i32 0, align 4
@ei_ospf_lsa_bad_length = internal global %struct.expert_field zeroinitializer, align 4
@.str.915 = private unnamed_addr constant [57 x i8] c"Address Prefix: length is invalid (%d, should be <= 128)\00", align 1

; Function Attrs: alwaysinline nounwind
define internal ptr @memset.inline(ptr %0, i32 %1, i64 %2) #8 {
  %4 = alloca ptr, align 8
  %5 = alloca i32, align 4
  %6 = alloca i64, align 8
  store ptr %0, ptr %4, align 8
  store i32 %1, ptr %5, align 4
  store i64 %2, ptr %6, align 8
  %7 = load ptr, ptr %4, align 8
  %8 = load i32, ptr %5, align 4
  %9 = load i64, ptr %6, align 8
  %10 = load ptr, ptr %4, align 8
  %11 = call i64 @llvm.objectsize.i64.p0(ptr %10, i1 false, i1 true, i1 true)
  %12 = call ptr @__memset_chk(ptr noundef %7, i32 noundef %8, i64 noundef %9, i64 noundef %11) #11
  ret ptr %12
}

; Function Attrs: null_pointer_is_valid sspstrong uwtable
define internal void @dissect_ospf_v3_address_prefix(ptr noundef %0, ptr noundef %1, i32 noundef %2, i32 noundef %3, ptr noundef %4, i8 noundef zeroext %5) #0 {
  %7 = alloca ptr, align 8
  %8 = alloca ptr, align 8
  %9 = alloca i32, align 4
  %10 = alloca i32, align 4
  %11 = alloca ptr, align 8
  %12 = alloca i8, align 1
  %13 = alloca i32, align 4
  %14 = alloca %struct.e_in6_addr, align 1
  %15 = alloca i32, align 4
  store ptr %0, ptr %7, align 8
  store ptr %1, ptr %8, align 8
  store i32 %2, ptr %9, align 4
  store i32 %3, ptr %10, align 4
  store ptr %4, ptr %11, align 8
  store i8 %5, ptr %12, align 1
  call void @llvm.lifetime.start.p0(i64 4, ptr %13) #11
  call void @llvm.lifetime.start.p0(i64 16, ptr %14) #11
  %16 = load i32, ptr %10, align 4
  %17 = add i32 %16, 31
  %18 = sdiv i32 %17, 32
  %19 = mul i32 %18, 4
  store i32 %19, ptr %13, align 4
  %20 = load i32, ptr %10, align 4
  %21 = icmp sgt i32 %20, 128
  br i1 %21, label %22, label %30

22:                                               ; preds = %6
  %23 = load ptr, ptr %11, align 8
  %24 = load ptr, ptr %8, align 8
  %25 = load ptr, ptr %7, align 8
  %26 = load i32, ptr %9, align 4
  %27 = load i32, ptr %13, align 4
  %28 = load i32, ptr %10, align 4
  %29 = call ptr (ptr, ptr, ptr, ptr, i32, i32, ptr, ...) @proto_tree_add_expert_format(ptr noundef %23, ptr noundef %24, ptr noundef @ei_ospf_lsa_bad_length, ptr noundef %25, i32 noundef %26, i32 noundef %27, ptr noundef @.str.915, i32 noundef %28)
  store i32 1, ptr %15, align 4
  br label %80

30:                                               ; preds = %6
  %31 = getelementptr inbounds nuw %struct.e_in6_addr, ptr %14, i32 0, i32 0
  %32 = getelementptr inbounds [16 x i8], ptr %31, i64 0, i64 0
  %33 = call ptr @memset.inline(ptr noundef %32, i32 noundef 0, i64 noundef 16) #11
  %34 = load i32, ptr %13, align 4
  %35 = icmp ne i32 %34, 0
  br i1 %35, label %36, label %62

36:                                               ; preds = %30
  %37 = load ptr, ptr %7, align 8
  %38 = getelementptr inbounds nuw %struct.e_in6_addr, ptr %14, i32 0, i32 0
  %39 = getelementptr inbounds [16 x i8], ptr %38, i64 0, i64 0
  %40 = load i32, ptr %9, align 4
  %41 = load i32, ptr %13, align 4
  %42 = sext i32 %41 to i64
  %43 = call ptr @tvb_memcpy(ptr noundef %37, ptr noundef %39, i32 noundef %40, i64 noundef %42)
  %44 = load i32, ptr %10, align 4
  %45 = srem i32 %44, 8
  %46 = icmp ne i32 %45, 0
  br i1 %46, label %47, label %61

47:                                               ; preds = %36
  %48 = load i32, ptr %10, align 4
  %49 = srem i32 %48, 8
  %50 = ashr i32 65280, %49
  %51 = and i32 %50, 255
  %52 = getelementptr inbounds nuw %struct.e_in6_addr, ptr %14, i32 0, i32 0
  %53 = load i32, ptr %13, align 4
  %54 = sub i32 %53, 1
  %55 = sext i32 %54 to i64
  %56 = getelementptr [16 x i8], ptr %52, i64 0, i64 %55
  %57 = load i8, ptr %56, align 1
  %58 = zext i8 %57 to i32
  %59 = and i32 %58, %51
  %60 = trunc i32 %59 to i8
  store i8 %60, ptr %56, align 1
  br label %61

61:                                               ; preds = %47, %36
  br label %62

62:                                               ; preds = %61, %30
  %63 = load i8, ptr %12, align 1
  %64 = zext i8 %63 to i32
  %65 = icmp eq i32 %64, 6
  br i1 %65, label %66, label %73

66:                                               ; preds = %62
  %67 = load ptr, ptr %11, align 8
  %68 = load i32, ptr @hf_ospf_v3_address_prefix_ipv6, align 4
  %69 = load ptr, ptr %7, align 8
  %70 = load i32, ptr %9, align 4
  %71 = load i32, ptr %13, align 4
  %72 = call ptr @proto_tree_add_ipv6(ptr noundef %67, i32 noundef %68, ptr noundef %69, i32 noundef %70, i32 noundef %71, ptr noundef %14)
  br label %79

73:                                               ; preds = %62
  %74 = load ptr, ptr %11, align 8
  %75 = load i32, ptr @hf_ospf_v3_address_prefix_ipv4, align 4
  %76 = load ptr, ptr %7, align 8
  %77 = load i32, ptr %9, align 4
  %78 = call ptr @proto_tree_add_item(ptr noundef %74, i32 noundef %75, ptr noundef %76, i32 noundef %77, i32 noundef 4, i32 noundef 0)
  br label %79

79:                                               ; preds = %73, %66
  store i32 0, ptr %15, align 4
  br label %80

80:                                               ; preds = %79, %22
  call void @llvm.lifetime.end.p0(i64 16, ptr %14) #11
  call void @llvm.lifetime.end.p0(i64 4, ptr %13) #11
  %81 = load i32, ptr %15, align 4
  switch i32 %81, label %83 [
    i32 0, label %82
    i32 1, label %82
  ]

82:                                               ; preds = %80, %80
  ret void

83:                                               ; preds = %80
  unreachable
}