; Function Attrs: null_pointer_is_valid sspstrong uwtable
define internal fastcc void @dissect_ospf_v3_address_prefix(ptr noundef %0, ptr noundef %1, i32 noundef %2, i32 noundef range(i32 0, 256) %3, ptr noundef %4, i8 noundef zeroext range(i8 4, 7) %5) unnamed_addr #0 {
  %7 = alloca %struct.e_in6_addr, align 1
  call void @llvm.lifetime.start.p0(i64 16, ptr nonnull %7) #5
  %8 = add nuw nsw i32 %3, 31
  %9 = lshr i32 %8, 3
  %10 = and i32 %9, 60
  %11 = icmp samesign ugt i32 %3, 128
  br i1 %11, label %12, label %14

12:                                               ; preds = %6
  %13 = tail call ptr (ptr, ptr, ptr, ptr, i32, i32, ptr, ...) @proto_tree_add_expert_format(ptr noundef %4, ptr noundef %1, ptr noundef nonnull @ei_ospf_lsa_bad_length, ptr noundef %0, i32 noundef %2, i32 noundef %10, ptr noundef nonnull @.str.915, i32 noundef %3)
  br label %35

14:                                               ; preds = %6
  call void @llvm.memset.p0.i64(ptr noundef nonnull align 1 dereferenceable(16) %7, i8 noundef 0, i64 noundef 16, i1 noundef false) #5
  %.not = icmp eq i32 %10, 0
  br i1 %.not, label %27, label %15

15:                                               ; preds = %14
  %16 = zext nneg i32 %10 to i64
  %17 = call ptr @tvb_memcpy(ptr noundef %0, ptr noundef nonnull %7, i32 noundef %2, i64 noundef %16)
  %18 = and i32 %3, 7
  %.not24 = icmp eq i32 %18, 0
  br i1 %.not24, label %27, label %19

19:                                               ; preds = %15
  %20 = lshr exact i32 65280, %18
  %21 = add nsw i32 %10, -1
  %22 = zext nneg i32 %21 to i64
  %23 = getelementptr [16 x i8], ptr %7, i64 0, i64 %22
  %24 = load i8, ptr %23, align 1
  %25 = trunc i32 %20 to i8
  %26 = and i8 %24, %25
  store i8 %26, ptr %23, align 1
  br label %27

27:                                               ; preds = %15, %19, %14
  %28 = icmp eq i8 %5, 6
  br i1 %28, label %29, label %32

29:                                               ; preds = %27
  %30 = load i32, ptr @hf_ospf_v3_address_prefix_ipv6, align 4
  %31 = call ptr @proto_tree_add_ipv6(ptr noundef %4, i32 noundef %30, ptr noundef %0, i32 noundef %2, i32 noundef %10, ptr noundef nonnull %7)
  br label %35

32:                                               ; preds = %27
  %33 = load i32, ptr @hf_ospf_v3_address_prefix_ipv4, align 4
  %34 = call ptr @proto_tree_add_item(ptr noundef %4, i32 noundef %33, ptr noundef %0, i32 noundef %2, i32 noundef 4, i32 noundef 0)
  br label %35

35:                                               ; preds = %29, %32, %12
  call void @llvm.lifetime.end.p0(i64 16, ptr nonnull %7) #5
  ret void
}